; Function Attrs: mustprogress null_pointer_is_valid sspstrong uwtable
define void @_ZN21LBMLBTRUReceiverEntryC2ERK7QString(ptr noundef align 8 dereferenceable_or_null(248) %0, ptr noundef readonly align 8 captures(none) dereferenceable(24) %1) unnamed_addr #0 align 2 personality ptr @__gxx_personality_v0 {
  %3 = alloca %class.QVariant, align 8
  tail call void @_ZN15QTreeWidgetItemC2Ei(ptr noundef align 8 dereferenceable_or_null(92) %0, i32 noundef 0)
  store ptr getelementptr inbounds nuw inrange(-16, 64) (i8, ptr @_ZTV21LBMLBTRUReceiverEntry, i64 16), ptr %0, align 8
  %4 = getelementptr inbounds nuw i8, ptr %0, i64 96
  %5 = load ptr, ptr %1, align 8
  store ptr %5, ptr %4, align 8
  %6 = getelementptr inbounds nuw i8, ptr %0, i64 104
  %7 = getelementptr inbounds nuw i8, ptr %1, i64 8
  %8 = load ptr, ptr %7, align 8
  store ptr %8, ptr %6, align 8
  %9 = getelementptr inbounds nuw i8, ptr %0, i64 112
  %10 = getelementptr inbounds nuw i8, ptr %1, i64 16
  %11 = load i64, ptr %10, align 8
  store i64 %11, ptr %9, align 8
  %.not.i.i.i = icmp eq ptr %5, null
  br i1 %.not.i.i.i, label %_ZN7QStringC2ERKS_.exit, label %12

12:                                               ; preds = %2
  %13 = atomicrmw add ptr %5, i32 1 seq_cst, align 4
  br label %_ZN7QStringC2ERKS_.exit

_ZN7QStringC2ERKS_.exit:                          ; preds = %2, %12
  %14 = getelementptr inbounds nuw i8, ptr %0, i64 120
  %15 = getelementptr inbounds nuw i8, ptr %0, i64 216
  store i8 0, ptr %15, align 8
  %16 = getelementptr inbounds nuw i8, ptr %0, i64 240
  store ptr null, ptr %16, align 8
  %17 = getelementptr inbounds nuw i8, ptr %0, i64 224
  store i64 0, ptr %17, align 8
  %18 = getelementptr inbounds nuw i8, ptr %0, i64 232
  store i32 0, ptr %18, align 8
  tail call void @llvm.memset.p0.i64(ptr noundef nonnull align 8 dereferenceable(92) %14, i8 0, i64 92, i1 false)
  call void @llvm.lifetime.start.p0(i64 32, ptr nonnull %3) #19
  invoke void @_ZN8QVariantC1ERK7QString(ptr noundef nonnull align 8 dereferenceable_or_null(32) %3, ptr noundef nonnull align 8 dereferenceable(24) %4)
          to label %.noexc unwind label %25

.noexc:                                           ; preds = %_ZN7QStringC2ERKS_.exit
  %19 = load ptr, ptr %0, align 8
  %20 = getelementptr inbounds nuw i8, ptr %19, i64 32
  %21 = load ptr, ptr %20, align 8
  invoke void %21(ptr noundef align 8 dereferenceable_or_null(92) %0, i32 noundef 0, i32 noundef 0, ptr noundef nonnull align 8 dereferenceable(32) %3)
          to label %24 unwind label %22

22:                                               ; preds = %.noexc
  %23 = landingpad { ptr, i32 }
          cleanup
  call void @_ZN8QVariantD1Ev(ptr noundef nonnull align 8 dereferenceable_or_null(32) %3) #19
  call void @llvm.lifetime.end.p0(i64 32, ptr nonnull %3) #19
  br label %.body

24:                                               ; preds = %.noexc
  call void @_ZN8QVariantD1Ev(ptr noundef nonnull align 8 dereferenceable_or_null(32) %3) #19
  call void @llvm.lifetime.end.p0(i64 32, ptr nonnull %3) #19
  ret void

25:                                               ; preds = %_ZN7QStringC2ERKS_.exit
  %26 = landingpad { ptr, i32 }
          cleanup
  br label %.body

.body:                                            ; preds = %22, %25
  %eh.lpad-body = phi { ptr, i32 } [ %26, %25 ], [ %23, %22 ]
  call void @_ZN4QMapI7QStringP30LBMLBTRUReceiverTransportEntryED2Ev(ptr noundef nonnull align 8 dereferenceable_or_null(8) %16) #19
  call void @_ZN7QStringD2Ev(ptr noundef nonnull align 8 dereferenceable_or_null(24) %14) #19
  call void @_ZN7QStringD2Ev(ptr noundef nonnull align 8 dereferenceable_or_null(24) %4) #19
  call void @_ZN15QTreeWidgetItemD2Ev(ptr noundef align 8 dereferenceable_or_null(92) %0) #19
  resume { ptr, i32 } %eh.lpad-body
}